target datalayout = "e-m:e-p270:32:32-p271:32:32-p272:64:64-i64:64-i128:128-f80:128-n8:16:32:64-S128"
target triple = "x86_64-pc-linux-gnu"

%struct.slabclass_t = type { i32, i32, ptr, i32, i32, ptr, i32 }
%union.pthread_mutex_t = type { %struct.__pthread_mutex_s }
%struct.__pthread_mutex_s = type { i32, i32, i32, i32, i32, i16, i16, %struct.__pthread_internal_list }
%struct.__pthread_internal_list = type { ptr, ptr }

@slabclass = internal global [64 x %struct.slabclass_t] zeroinitializer, align 16
@mem_limit = internal global i64 0, align 8
@mem_malloced = internal global i64 0, align 8
@slabs_lock = internal global %union.pthread_mutex_t zeroinitializer, align 8

; Function Attrs: nounwind uwtable
define dso_local i32 @global_page_pool_size(ptr noundef %0) #0 {
  %2 = alloca ptr, align 8
  %3 = alloca i32, align 4
  store ptr %0, ptr %2, align 8, !tbaa !56
  call void @llvm.lifetime.start.p0(i64 4, ptr %3) #9
  store i32 0, ptr %3, align 4, !tbaa !8
  %4 = call i32 @pthread_mutex_lock(ptr noundef @slabs_lock) #9
  %5 = load ptr, ptr %2, align 8, !tbaa !56
  %6 = icmp ne ptr %5, null
  br i1 %6, label %7, label %15

7:                                                ; preds = %1
  %8 = load i64, ptr @mem_malloced, align 8, !tbaa !4
  %9 = load i64, ptr @mem_limit, align 8, !tbaa !4
  %10 = icmp uge i64 %8, %9
  %11 = select i1 %10, i32 1, i32 0
  %12 = icmp ne i32 %11, 0
  %13 = load ptr, ptr %2, align 8, !tbaa !56
  %14 = zext i1 %12 to i8
  store i8 %14, ptr %13, align 1, !tbaa !34
  br label %15

15:                                               ; preds = %7, %1
  %16 = load i32, ptr getelementptr inbounds nuw (%struct.slabclass_t, ptr @slabclass, i32 0, i32 4), align 4, !tbaa !27
  store i32 %16, ptr %3, align 4, !tbaa !8
  %17 = call i32 @pthread_mutex_unlock(ptr noundef @slabs_lock) #9
  %18 = load i32, ptr %3, align 4, !tbaa !8
  call void @llvm.lifetime.end.p0(i64 4, ptr %3) #9
  ret i32 %18
}