; Function Attrs: nounwind uwtable
define dso_local i32 @global_page_pool_size(ptr noundef writeonly captures(address_is_null) %0) local_unnamed_addr #4 {
  %2 = tail call i32 @pthread_mutex_lock(ptr noundef nonnull @slabs_lock) #21
  %.not = icmp eq ptr %0, null
  br i1 %.not, label %8, label %3

3:                                                ; preds = %1
  %4 = load i64, ptr @mem_malloced, align 8, !tbaa !31
  %5 = load i64, ptr @mem_limit, align 8, !tbaa !31
  %6 = icmp uge i64 %4, %5
  %7 = zext i1 %6 to i8
  store i8 %7, ptr %0, align 1, !tbaa !48
  br label %8

8:                                                ; preds = %3, %1
  %9 = load i32, ptr getelementptr inbounds nuw (i8, ptr @slabclass, i64 20), align 4, !tbaa !13
  %10 = tail call i32 @pthread_mutex_unlock(ptr noundef nonnull @slabs_lock) #21
  ret i32 %9
}